target datalayout = "e-m:e-p270:32:32-p271:32:32-p272:64:64-i64:64-i128:128-f80:128-n8:16:32:64-S128"
target triple = "x86_64-pc-linux-gnu"

%class.CmdExtract = type { %class.Array, ptr, i8, %class.RarTime, ptr, %class.ComprDataIO, ptr, i64, i64, i64, i8, i8, i8, i8, i8, [2048 x i32], i8, i8, [2048 x i32], i8, i8, %"class.std::__cxx11::basic_string" }
%class.Array = type { ptr, i64, i64, i64 }
%class.RarTime = type { i64 }
%class.ComprDataIO = type <{ i8, [7 x i8], i64, ptr, i8, [7 x i8], i64, ptr, i64, ptr, i64, i64, i8, i8, i8, i8, [4 x i8], ptr, ptr, ptr, ptr, ptr, ptr, ptr, i32, i32, i8, i8, i8, [5 x i8], i64, i64, i64, i64, i64, i64, i64, %class.DataHash, %class.DataHash, %class.DataHash, i8, i8, [6 x i8] }>
%class.DataHash = type { i32, i32, ptr }
%"class.std::__cxx11::basic_string" = type { %"struct.std::__cxx11::basic_string<wchar_t>::_Alloc_hider", i64, %union.anon }
%"struct.std::__cxx11::basic_string<wchar_t>::_Alloc_hider" = type { ptr }
%union.anon = type { i64, [8 x i8] }

; Function Attrs: mustprogress nounwind uwtable
define linkonce_odr void @_ZN7RarTime5ResetEv(ptr noundef nonnull align 8 dereferenceable(8) %0) #6 comdat align 2 {
  %2 = alloca ptr, align 8
  store ptr %0, ptr %2, align 8
  %3 = load ptr, ptr %2, align 8
  %4 = getelementptr inbounds %class.RarTime, ptr %3, i32 0, i32 0
  store i64 0, ptr %4, align 8
  ret void
}

; Function Attrs: mustprogress nounwind uwtable
define linkonce_odr void @_ZN5ArrayIN10CmdExtract10ExtractRefEE9CleanDataEv(ptr noundef nonnull align 8 dereferenceable(32) %0) #6 comdat align 2 {
  %2 = alloca ptr, align 8
  store ptr %0, ptr %2, align 8
  %3 = load ptr, ptr %2, align 8
  %4 = getelementptr inbounds %class.Array, ptr %3, i32 0, i32 0
  store ptr null, ptr %4, align 8
  %5 = getelementptr inbounds %class.Array, ptr %3, i32 0, i32 1
  store i64 0, ptr %5, align 8
  %6 = getelementptr inbounds %class.Array, ptr %3, i32 0, i32 2
  store i64 0, ptr %6, align 8
  %7 = getelementptr inbounds %class.Array, ptr %3, i32 0, i32 3
  store i64 0, ptr %7, align 8
  ret void
}

; Function Attrs: mustprogress nounwind uwtable
define linkonce_odr void @_ZN5ArrayIN10CmdExtract10ExtractRefEED2Ev(ptr noundef nonnull align 8 dereferenceable(32) %0) unnamed_addr #6 comdat align 2 {
  %2 = alloca ptr, align 8
  store ptr %0, ptr %2, align 8
  %3 = load ptr, ptr %2, align 8
  %4 = getelementptr inbounds %class.Array, ptr %3, i32 0, i32 0
  %5 = load ptr, ptr %4, align 8
  %6 = icmp ne ptr %5, null
  br i1 %6, label %7, label %10

7:                                                ; preds = %1
  %8 = getelementptr inbounds %class.Array, ptr %3, i32 0, i32 0
  %9 = load ptr, ptr %8, align 8
  call void @free(ptr noundef %9) #12
  br label %10

10:                                               ; preds = %7, %1
  ret void
}

; Function Attrs: mustprogress uwtable
define linkonce_odr void @_ZN7RarTimeC2Ev(ptr noundef nonnull align 8 dereferenceable(8) %0) unnamed_addr #0 comdat align 2 {
  %2 = alloca ptr, align 8
  store ptr %0, ptr %2, align 8
  %3 = load ptr, ptr %2, align 8
  call void @_ZN7RarTime5ResetEv(ptr noundef nonnull align 8 dereferenceable(8) %3)
  ret void
}

; Function Attrs: mustprogress uwtable
define linkonce_odr void @_ZN5ArrayIN10CmdExtract10ExtractRefEEC2Ev(ptr noundef nonnull align 8 dereferenceable(32) %0) unnamed_addr #0 comdat align 2 {
  %2 = alloca ptr, align 8
  store ptr %0, ptr %2, align 8
  %3 = load ptr, ptr %2, align 8
  call void @_ZN5ArrayIN10CmdExtract10ExtractRefEE9CleanDataEv(ptr noundef nonnull align 8 dereferenceable(32) %3)
  ret void
}

; Function Attrs: mustprogress uwtable
define void @_ZN10CmdExtractC2EP11CommandData(ptr noundef nonnull align 8 dereferenceable(16800) %0, ptr noundef %1) unnamed_addr #0 align 2 personality ptr @__gxx_personality_v0 {
  %3 = alloca ptr, align 8
  %4 = alloca ptr, align 8
  %5 = alloca ptr, align 8
  %6 = alloca i32, align 4
  store ptr %0, ptr %3, align 8
  store ptr %1, ptr %4, align 8
  %7 = load ptr, ptr %3, align 8
  %8 = getelementptr inbounds %class.CmdExtract, ptr %7, i32 0, i32 0
  call void @_ZN5ArrayIN10CmdExtract10ExtractRefEEC2Ev(ptr noundef nonnull align 8 dereferenceable(32) %8)
  %9 = getelementptr inbounds %class.CmdExtract, ptr %7, i32 0, i32 3
  invoke void @_ZN7RarTimeC2Ev(ptr noundef nonnull align 8 dereferenceable(8) %9)
          to label %10 unwind label %33

10:                                               ; preds = %2
  %11 = getelementptr inbounds %class.CmdExtract, ptr %7, i32 0, i32 5
  invoke void @_ZN11ComprDataIOC1Ev(ptr noundef nonnull align 8 dereferenceable(266) %11)
          to label %12 unwind label %33

12:                                               ; preds = %10
  %13 = getelementptr inbounds %class.CmdExtract, ptr %7, i32 0, i32 21
  call void @_ZNSt7__cxx1112basic_stringIwSt11char_traitsIwESaIwEEC1Ev(ptr noundef nonnull align 8 dereferenceable(32) %13) #12
  %14 = load ptr, ptr %4, align 8
  %15 = getelementptr inbounds %class.CmdExtract, ptr %7, i32 0, i32 4
  store ptr %14, ptr %15, align 8
  %16 = getelementptr inbounds %class.CmdExtract, ptr %7, i32 0, i32 15
  %17 = getelementptr inbounds [2048 x i32], ptr %16, i64 0, i64 0
  store i32 0, ptr %17, align 8
  %18 = getelementptr inbounds %class.CmdExtract, ptr %7, i32 0, i32 18
  %19 = getelementptr inbounds [2048 x i32], ptr %18, i64 0, i64 0
  store i32 0, ptr %19, align 4
  %20 = getelementptr inbounds %class.CmdExtract, ptr %7, i32 0, i32 2
  store i8 0, ptr %20, align 8
  %21 = invoke noalias noundef nonnull ptr @_Znwm(i64 noundef 16400) #13
          to label %22 unwind label %37

22:                                               ; preds = %12
  %23 = getelementptr inbounds %class.CmdExtract, ptr %7, i32 0, i32 1
  store ptr %21, ptr %23, align 8
  %24 = getelementptr inbounds %class.CmdExtract, ptr %7, i32 0, i32 1
  %25 = load ptr, ptr %24, align 8
  call void @llvm.memset.p0.i64(ptr align 8 %25, i8 0, i64 16400, i1 false)
  %26 = getelementptr inbounds %class.CmdExtract, ptr %7, i32 0, i32 7
  store i64 0, ptr %26, align 8
  %27 = getelementptr inbounds %class.CmdExtract, ptr %7, i32 0, i32 20
  store i8 1, ptr %27, align 1
  %28 = invoke noalias noundef nonnull ptr @_Znwm(i64 noundef 59688) #13
          to label %29 unwind label %37

29:                                               ; preds = %22
  %30 = getelementptr inbounds %class.CmdExtract, ptr %7, i32 0, i32 5
  invoke void @_ZN6UnpackC1EP11ComprDataIO(ptr noundef nonnull align 8 dereferenceable(59688) %28, ptr noundef %30)
          to label %31 unwind label %41

31:                                               ; preds = %29
  %32 = getelementptr inbounds %class.CmdExtract, ptr %7, i32 0, i32 6
  store ptr %28, ptr %32, align 8
  ret void

33:                                               ; preds = %10, %2
  %34 = landingpad { ptr, i32 }
          cleanup
  %35 = extractvalue { ptr, i32 } %34, 0
  store ptr %35, ptr %5, align 8
  %36 = extractvalue { ptr, i32 } %34, 1
  store i32 %36, ptr %6, align 4
  br label %46

37:                                               ; preds = %22, %12
  %38 = landingpad { ptr, i32 }
          cleanup
  %39 = extractvalue { ptr, i32 } %38, 0
  store ptr %39, ptr %5, align 8
  %40 = extractvalue { ptr, i32 } %38, 1
  store i32 %40, ptr %6, align 4
  br label %45

41:                                               ; preds = %29
  %42 = landingpad { ptr, i32 }
          cleanup
  %43 = extractvalue { ptr, i32 } %42, 0
  store ptr %43, ptr %5, align 8
  %44 = extractvalue { ptr, i32 } %42, 1
  store i32 %44, ptr %6, align 4
  call void @_ZdlPv(ptr noundef %28) #14
  br label %45

45:                                               ; preds = %41, %37
  call void @_ZNSt7__cxx1112basic_stringIwSt11char_traitsIwESaIwEED1Ev(ptr noundef nonnull align 8 dereferenceable(32) %13) #12
  call void @_ZN11ComprDataIOD1Ev(ptr noundef nonnull align 8 dereferenceable(266) %11) #12
  br label %46

46:                                               ; preds = %45, %33
  call void @_ZN5ArrayIN10CmdExtract10ExtractRefEED2Ev(ptr noundef nonnull align 8 dereferenceable(32) %8) #12
  br label %47

47:                                               ; preds = %46
  %48 = load ptr, ptr %5, align 8
  %49 = load i32, ptr %6, align 4
  %50 = insertvalue { ptr, i32 } poison, ptr %48, 0
  %51 = insertvalue { ptr, i32 } %50, i32 %49, 1
  resume { ptr, i32 } %51
}