; Function Attrs: mustprogress uwtable
define void @_ZN10CmdExtractC2EP11CommandData(ptr noundef nonnull align 8 dereferenceable(16800) %0, ptr noundef %1) unnamed_addr #0 align 2 personality ptr @__gxx_personality_v0 {
  tail call void @llvm.memset.p0.i64(ptr noundef nonnull align 8 dereferenceable(32) %0, i8 0, i64 32, i1 false)
  %3 = getelementptr inbounds i8, ptr %0, i64 48
  store i64 0, ptr %3, align 8
  %4 = getelementptr inbounds i8, ptr %0, i64 64
  invoke void @_ZN11ComprDataIOC1Ev(ptr noundef nonnull align 8 dereferenceable(266) %4)
          to label %5 unwind label %20

5:                                                ; preds = %2
  %6 = getelementptr inbounds i8, ptr %0, i64 16768
  tail call void @_ZNSt7__cxx1112basic_stringIwSt11char_traitsIwESaIwEEC1Ev(ptr noundef nonnull align 8 dereferenceable(32) %6) #18
  %7 = getelementptr inbounds i8, ptr %0, i64 56
  store ptr %1, ptr %7, align 8
  %8 = getelementptr inbounds i8, ptr %0, i64 376
  store i32 0, ptr %8, align 8
  %9 = getelementptr inbounds i8, ptr %0, i64 8572
  store i32 0, ptr %9, align 4
  %10 = getelementptr inbounds i8, ptr %0, i64 40
  store i8 0, ptr %10, align 8
  %11 = invoke noalias noundef nonnull dereferenceable(16400) ptr @_Znwm(i64 noundef 16400) #19
          to label %12 unwind label %22

12:                                               ; preds = %5
  %13 = getelementptr inbounds i8, ptr %0, i64 32
  store ptr %11, ptr %13, align 8
  tail call void @llvm.memset.p0.i64(ptr noundef nonnull align 8 dereferenceable(16400) %11, i8 0, i64 16400, i1 false)
  %14 = getelementptr inbounds i8, ptr %0, i64 344
  store i64 0, ptr %14, align 8
  %15 = getelementptr inbounds i8, ptr %0, i64 16765
  store i8 1, ptr %15, align 1
  %16 = invoke noalias noundef nonnull dereferenceable(59688) ptr @_Znwm(i64 noundef 59688) #19
          to label %17 unwind label %22

17:                                               ; preds = %12
  invoke void @_ZN6UnpackC1EP11ComprDataIO(ptr noundef nonnull align 8 dereferenceable(59688) %16, ptr noundef nonnull %4)
          to label %18 unwind label %24

18:                                               ; preds = %17
  %19 = getelementptr inbounds i8, ptr %0, i64 336
  store ptr %16, ptr %19, align 8
  ret void

20:                                               ; preds = %2
  %21 = landingpad { ptr, i32 }
          cleanup
  br label %27

22:                                               ; preds = %12, %5
  %23 = landingpad { ptr, i32 }
          cleanup
  br label %26

24:                                               ; preds = %17
  %25 = landingpad { ptr, i32 }
          cleanup
  tail call void @_ZdlPv(ptr noundef nonnull %16) #20
  br label %26

26:                                               ; preds = %24, %22
  %.pn = phi { ptr, i32 } [ %25, %24 ], [ %23, %22 ]
  tail call void @_ZNSt7__cxx1112basic_stringIwSt11char_traitsIwESaIwEED1Ev(ptr noundef nonnull align 8 dereferenceable(32) %6) #18
  tail call void @_ZN11ComprDataIOD1Ev(ptr noundef nonnull align 8 dereferenceable(266) %4) #18
  br label %27

27:                                               ; preds = %26, %20
  %.pn.pn = phi { ptr, i32 } [ %.pn, %26 ], [ %21, %20 ]
  %28 = load ptr, ptr %0, align 8
  %.not.i = icmp eq ptr %28, null
  br i1 %.not.i, label %_ZN5ArrayIN10CmdExtract10ExtractRefEED2Ev.exit, label %29

29:                                               ; preds = %27
  tail call void @free(ptr noundef nonnull %28) #18
  br label %_ZN5ArrayIN10CmdExtract10ExtractRefEED2Ev.exit

_ZN5ArrayIN10CmdExtract10ExtractRefEED2Ev.exit:   ; preds = %27, %29
  resume { ptr, i32 } %.pn.pn
}